target datalayout = "e-m:e-p270:32:32-p271:32:32-p272:64:64-i64:64-i128:128-f80:128-n8:16:32:64-S128"
target triple = "x86_64-pc-linux-gnu"

%struct.ParseCallbackState = type { ptr, i32, %struct.ErrorContextCallback }
%struct.ErrorContextCallback = type { ptr, ptr, ptr }
%struct.Expr = type { i32 }
%struct.Node = type { i32 }
%struct.ErrorSaveContext = type { i32, i8, i8, ptr }
%struct.A_Const = type { i32, %union.ValUnion, i8, i32 }
%union.ValUnion = type { %struct.Float }
%struct.Float = type { i32, ptr }
%struct.Const = type { %struct.Expr, i32, i32, i32, i32, i64, i8, i8, i32 }
%struct.Integer = type { i32, i32 }
%struct.Boolean = type { i32, i8 }
%struct.String = type { i32, ptr }
%struct.BitString = type { i32, ptr }

@.str.1 = private unnamed_addr constant [13 x i8] c"parse_node.c\00", align 1
@error_context_stack = external global ptr, align 8
@__const.make_const.escontext = private unnamed_addr constant { i32, i8, i8, [2 x i8], ptr } { i32 446, i8 0, i8 0, [2 x i8] zeroinitializer, ptr null }, align 8
@.str.3 = private unnamed_addr constant [27 x i8] c"unrecognized node type: %d\00", align 1
@__func__.make_const = private unnamed_addr constant [11 x i8] c"make_const\00", align 1

; Function Attrs: inlinehint nounwind uwtable
define internal i64 @PointerGetDatum(ptr noundef %0) #5 {
  %2 = alloca ptr, align 8
  store ptr %0, ptr %2, align 8
  %3 = load ptr, ptr %2, align 8
  %4 = ptrtoint ptr %3 to i64
  ret i64 %4
}

; Function Attrs: inlinehint nounwind uwtable
define internal i64 @BoolGetDatum(i1 noundef zeroext %0) #5 {
  %2 = alloca i8, align 1
  %3 = zext i1 %0 to i8
  store i8 %3, ptr %2, align 1
  %4 = load i8, ptr %2, align 1, !range !4, !noundef !5
  %5 = trunc i8 %4 to i1
  %6 = select i1 %5, i32 1, i32 0
  %7 = sext i32 %6 to i64
  ret i64 %7
}

; Function Attrs: nounwind uwtable
define dso_local void @cancel_parser_errposition_callback(ptr noundef %0) #0 {
  %2 = alloca ptr, align 8
  store ptr %0, ptr %2, align 8
  %3 = load ptr, ptr %2, align 8
  %4 = getelementptr inbounds nuw %struct.ParseCallbackState, ptr %3, i32 0, i32 2
  %5 = getelementptr inbounds nuw %struct.ErrorContextCallback, ptr %4, i32 0, i32 0
  %6 = load ptr, ptr %5, align 8
  store ptr %6, ptr @error_context_stack, align 8
  ret void
}

; Function Attrs: inlinehint nounwind uwtable
define internal i64 @ObjectIdGetDatum(i32 noundef %0) #5 {
  %2 = alloca i32, align 4
  store i32 %0, ptr %2, align 4
  %3 = load i32, ptr %2, align 4
  %4 = zext i32 %3 to i64
  ret i64 %4
}

; Function Attrs: inlinehint nounwind uwtable
define internal i64 @CStringGetDatum(ptr noundef %0) #5 {
  %2 = alloca ptr, align 8
  store ptr %0, ptr %2, align 8
  %3 = load ptr, ptr %2, align 8
  %4 = call i64 @PointerGetDatum(ptr noundef %3)
  ret i64 %4
}

; Function Attrs: nounwind uwtable
define dso_local void @setup_parser_errposition_callback(ptr noundef %0, ptr noundef %1, i32 noundef %2) #0 {
  %4 = alloca ptr, align 8
  %5 = alloca ptr, align 8
  %6 = alloca i32, align 4
  store ptr %0, ptr %4, align 8
  store ptr %1, ptr %5, align 8
  store i32 %2, ptr %6, align 4
  %7 = load ptr, ptr %5, align 8
  %8 = load ptr, ptr %4, align 8
  %9 = getelementptr inbounds nuw %struct.ParseCallbackState, ptr %8, i32 0, i32 0
  store ptr %7, ptr %9, align 8
  %10 = load i32, ptr %6, align 4
  %11 = load ptr, ptr %4, align 8
  %12 = getelementptr inbounds nuw %struct.ParseCallbackState, ptr %11, i32 0, i32 1
  store i32 %10, ptr %12, align 8
  %13 = load ptr, ptr %4, align 8
  %14 = getelementptr inbounds nuw %struct.ParseCallbackState, ptr %13, i32 0, i32 2
  %15 = getelementptr inbounds nuw %struct.ErrorContextCallback, ptr %14, i32 0, i32 1
  store ptr @pcb_error_callback, ptr %15, align 8
  %16 = load ptr, ptr %4, align 8
  %17 = load ptr, ptr %4, align 8
  %18 = getelementptr inbounds nuw %struct.ParseCallbackState, ptr %17, i32 0, i32 2
  %19 = getelementptr inbounds nuw %struct.ErrorContextCallback, ptr %18, i32 0, i32 2
  store ptr %16, ptr %19, align 8
  %20 = load ptr, ptr @error_context_stack, align 8
  %21 = load ptr, ptr %4, align 8
  %22 = getelementptr inbounds nuw %struct.ParseCallbackState, ptr %21, i32 0, i32 2
  %23 = getelementptr inbounds nuw %struct.ErrorContextCallback, ptr %22, i32 0, i32 0
  store ptr %20, ptr %23, align 8
  %24 = load ptr, ptr %4, align 8
  %25 = getelementptr inbounds nuw %struct.ParseCallbackState, ptr %24, i32 0, i32 2
  store ptr %25, ptr @error_context_stack, align 8
  ret void
}

; Function Attrs: inlinehint nounwind uwtable
define internal i64 @Int64GetDatum(i64 noundef %0) #5 {
  %2 = alloca i64, align 8
  store i64 %0, ptr %2, align 8
  %3 = load i64, ptr %2, align 8
  ret i64 %3
}

; Function Attrs: inlinehint nounwind uwtable
define internal i64 @Int32GetDatum(i32 noundef %0) #5 {
  %2 = alloca i32, align 4
  store i32 %0, ptr %2, align 4
  %3 = load i32, ptr %2, align 4
  %4 = sext i32 %3 to i64
  ret i64 %4
}

; Function Attrs: nounwind uwtable
define dso_local ptr @make_const(ptr noundef %0, ptr noundef %1) #0 {
  %3 = alloca ptr, align 8
  %4 = alloca ptr, align 8
  %5 = alloca ptr, align 8
  %6 = alloca ptr, align 8
  %7 = alloca i64, align 8
  %8 = alloca i32, align 4
  %9 = alloca i32, align 4
  %10 = alloca i8, align 1
  %11 = alloca %struct.ParseCallbackState, align 8
  %12 = alloca i32, align 4
  %13 = alloca %struct.ErrorSaveContext, align 8
  %14 = alloca i64, align 8
  %15 = alloca i32, align 4
  store ptr %0, ptr %4, align 8
  store ptr %1, ptr %5, align 8
  call void @llvm.lifetime.start.p0(i64 8, ptr %6) #7
  call void @llvm.lifetime.start.p0(i64 8, ptr %7) #7
  call void @llvm.lifetime.start.p0(i64 4, ptr %8) #7
  call void @llvm.lifetime.start.p0(i64 4, ptr %9) #7
  call void @llvm.lifetime.start.p0(i64 1, ptr %10) #7
  call void @llvm.lifetime.start.p0(i64 40, ptr %11) #7
  %16 = load ptr, ptr %5, align 8
  %17 = getelementptr inbounds nuw %struct.A_Const, ptr %16, i32 0, i32 2
  %18 = load i8, ptr %17, align 8, !range !4, !noundef !5
  %19 = trunc i8 %18 to i1
  br i1 %19, label %20, label %28

20:                                               ; preds = %2
  %21 = call ptr @makeConst(i32 noundef 705, i32 noundef -1, i32 noundef 0, i32 noundef -2, i64 noundef 0, i1 noundef zeroext true, i1 noundef zeroext false)
  store ptr %21, ptr %6, align 8
  %22 = load ptr, ptr %5, align 8
  %23 = getelementptr inbounds nuw %struct.A_Const, ptr %22, i32 0, i32 3
  %24 = load i32, ptr %23, align 4
  %25 = load ptr, ptr %6, align 8
  %26 = getelementptr inbounds nuw %struct.Const, ptr %25, i32 0, i32 8
  store i32 %24, ptr %26, align 4
  %27 = load ptr, ptr %6, align 8
  store ptr %27, ptr %3, align 8
  store i32 1, ptr %12, align 4
  br label %130

28:                                               ; preds = %2
  %29 = load ptr, ptr %5, align 8
  %30 = getelementptr inbounds nuw %struct.A_Const, ptr %29, i32 0, i32 1
  %31 = getelementptr inbounds nuw %struct.Node, ptr %30, i32 0, i32 0
  %32 = load i32, ptr %31, align 8
  switch i32 %32, label %102 [
    i32 464, label %33
    i32 465, label %39
    i32 466, label %76
    i32 467, label %83
    i32 468, label %89
  ]

33:                                               ; preds = %28
  %34 = load ptr, ptr %5, align 8
  %35 = getelementptr inbounds nuw %struct.A_Const, ptr %34, i32 0, i32 1
  %36 = getelementptr inbounds nuw %struct.Integer, ptr %35, i32 0, i32 1
  %37 = load i32, ptr %36, align 4
  %38 = call i64 @Int32GetDatum(i32 noundef %37)
  store i64 %38, ptr %7, align 8
  store i32 23, ptr %8, align 4
  store i32 4, ptr %9, align 4
  store i8 1, ptr %10, align 1
  br label %117

39:                                               ; preds = %28
  call void @llvm.lifetime.start.p0(i64 16, ptr %13) #7
  call void @llvm.memcpy.p0.p0.i64(ptr align 8 %13, ptr align 8 @__const.make_const.escontext, i64 16, i1 false)
  call void @llvm.lifetime.start.p0(i64 8, ptr %14) #7
  %40 = load ptr, ptr %5, align 8
  %41 = getelementptr inbounds nuw %struct.A_Const, ptr %40, i32 0, i32 1
  %42 = getelementptr inbounds nuw %struct.Float, ptr %41, i32 0, i32 1
  %43 = load ptr, ptr %42, align 8
  %44 = call i64 @pg_strtoint64_safe(ptr noundef %43, ptr noundef %13)
  store i64 %44, ptr %14, align 8
  %45 = getelementptr inbounds nuw %struct.ErrorSaveContext, ptr %13, i32 0, i32 1
  %46 = load i8, ptr %45, align 4, !range !4, !noundef !5
  %47 = trunc i8 %46 to i1
  br i1 %47, label %62, label %48

48:                                               ; preds = %39
  call void @llvm.lifetime.start.p0(i64 4, ptr %15) #7
  %49 = load i64, ptr %14, align 8
  %50 = trunc i64 %49 to i32
  store i32 %50, ptr %15, align 4
  %51 = load i64, ptr %14, align 8
  %52 = load i32, ptr %15, align 4
  %53 = sext i32 %52 to i64
  %54 = icmp eq i64 %51, %53
  br i1 %54, label %55, label %58

55:                                               ; preds = %48
  %56 = load i32, ptr %15, align 4
  %57 = call i64 @Int32GetDatum(i32 noundef %56)
  store i64 %57, ptr %7, align 8
  store i32 23, ptr %8, align 4
  store i32 4, ptr %9, align 4
  store i8 1, ptr %10, align 1
  br label %61

58:                                               ; preds = %48
  %59 = load i64, ptr %14, align 8
  %60 = call i64 @Int64GetDatum(i64 noundef %59)
  store i64 %60, ptr %7, align 8
  store i32 20, ptr %8, align 4
  store i32 8, ptr %9, align 4
  store i8 1, ptr %10, align 1
  br label %61

61:                                               ; preds = %58, %55
  call void @llvm.lifetime.end.p0(i64 4, ptr %15) #7
  br label %75

62:                                               ; preds = %39
  %63 = load ptr, ptr %4, align 8
  %64 = load ptr, ptr %5, align 8
  %65 = getelementptr inbounds nuw %struct.A_Const, ptr %64, i32 0, i32 3
  %66 = load i32, ptr %65, align 4
  call void @setup_parser_errposition_callback(ptr noundef %11, ptr noundef %63, i32 noundef %66)
  %67 = load ptr, ptr %5, align 8
  %68 = getelementptr inbounds nuw %struct.A_Const, ptr %67, i32 0, i32 1
  %69 = getelementptr inbounds nuw %struct.Float, ptr %68, i32 0, i32 1
  %70 = load ptr, ptr %69, align 8
  %71 = call i64 @CStringGetDatum(ptr noundef %70)
  %72 = call i64 @ObjectIdGetDatum(i32 noundef 0)
  %73 = call i64 @Int32GetDatum(i32 noundef -1)
  %74 = call i64 @DirectFunctionCall3Coll(ptr noundef @numeric_in, i32 noundef 0, i64 noundef %71, i64 noundef %72, i64 noundef %73)
  store i64 %74, ptr %7, align 8
  call void @cancel_parser_errposition_callback(ptr noundef %11)
  store i32 1700, ptr %8, align 4
  store i32 -1, ptr %9, align 4
  store i8 0, ptr %10, align 1
  br label %75

75:                                               ; preds = %62, %61
  store i32 2, ptr %12, align 4
  call void @llvm.lifetime.end.p0(i64 8, ptr %14) #7
  call void @llvm.lifetime.end.p0(i64 16, ptr %13) #7
  br label %117

76:                                               ; preds = %28
  %77 = load ptr, ptr %5, align 8
  %78 = getelementptr inbounds nuw %struct.A_Const, ptr %77, i32 0, i32 1
  %79 = getelementptr inbounds nuw %struct.Boolean, ptr %78, i32 0, i32 1
  %80 = load i8, ptr %79, align 4, !range !4, !noundef !5
  %81 = trunc i8 %80 to i1
  %82 = call i64 @BoolGetDatum(i1 noundef zeroext %81)
  store i64 %82, ptr %7, align 8
  store i32 16, ptr %8, align 4
  store i32 1, ptr %9, align 4
  store i8 1, ptr %10, align 1
  br label %117

83:                                               ; preds = %28
  %84 = load ptr, ptr %5, align 8
  %85 = getelementptr inbounds nuw %struct.A_Const, ptr %84, i32 0, i32 1
  %86 = getelementptr inbounds nuw %struct.String, ptr %85, i32 0, i32 1
  %87 = load ptr, ptr %86, align 8
  %88 = call i64 @CStringGetDatum(ptr noundef %87)
  store i64 %88, ptr %7, align 8
  store i32 705, ptr %8, align 4
  store i32 -2, ptr %9, align 4
  store i8 0, ptr %10, align 1
  br label %117

89:                                               ; preds = %28
  %90 = load ptr, ptr %4, align 8
  %91 = load ptr, ptr %5, align 8
  %92 = getelementptr inbounds nuw %struct.A_Const, ptr %91, i32 0, i32 3
  %93 = load i32, ptr %92, align 4
  call void @setup_parser_errposition_callback(ptr noundef %11, ptr noundef %90, i32 noundef %93)
  %94 = load ptr, ptr %5, align 8
  %95 = getelementptr inbounds nuw %struct.A_Const, ptr %94, i32 0, i32 1
  %96 = getelementptr inbounds nuw %struct.BitString, ptr %95, i32 0, i32 1
  %97 = load ptr, ptr %96, align 8
  %98 = call i64 @CStringGetDatum(ptr noundef %97)
  %99 = call i64 @ObjectIdGetDatum(i32 noundef 0)
  %100 = call i64 @Int32GetDatum(i32 noundef -1)
  %101 = call i64 @DirectFunctionCall3Coll(ptr noundef @bit_in, i32 noundef 0, i64 noundef %98, i64 noundef %99, i64 noundef %100)
  store i64 %101, ptr %7, align 8
  call void @cancel_parser_errposition_callback(ptr noundef %11)
  store i32 1560, ptr %8, align 4
  store i32 -1, ptr %9, align 4
  store i8 0, ptr %10, align 1
  br label %117

102:                                              ; preds = %28
  br label %103

103:                                              ; preds = %102
  br i1 true, label %104, label %106

104:                                              ; preds = %103
  %105 = call zeroext i1 @errstart_cold(i32 noundef 21, ptr noundef null) #8
  br i1 %105, label %108, label %114

106:                                              ; preds = %103
  %107 = call zeroext i1 @errstart(i32 noundef 21, ptr noundef null)
  br i1 %107, label %108, label %114

108:                                              ; preds = %106, %104
  %109 = load ptr, ptr %5, align 8
  %110 = getelementptr inbounds nuw %struct.A_Const, ptr %109, i32 0, i32 1
  %111 = getelementptr inbounds nuw %struct.Node, ptr %110, i32 0, i32 0
  %112 = load i32, ptr %111, align 8
  %113 = call i32 (ptr, ...) @errmsg_internal(ptr noundef @.str.3, i32 noundef %112)
  call void @errfinish(ptr noundef @.str.1, i32 noundef 466, ptr noundef @__func__.make_const)
  br label %114

114:                                              ; preds = %108, %106, %104
  unreachable

115:                                              ; No predecessors!
  br label %116

116:                                              ; preds = %115
  store ptr null, ptr %3, align 8
  store i32 1, ptr %12, align 4
  br label %130

117:                                              ; preds = %89, %83, %76, %75, %33
  %118 = load i32, ptr %8, align 4
  %119 = load i32, ptr %9, align 4
  %120 = load i64, ptr %7, align 8
  %121 = load i8, ptr %10, align 1, !range !4, !noundef !5
  %122 = trunc i8 %121 to i1
  %123 = call ptr @makeConst(i32 noundef %118, i32 noundef -1, i32 noundef 0, i32 noundef %119, i64 noundef %120, i1 noundef zeroext false, i1 noundef zeroext %122)
  store ptr %123, ptr %6, align 8
  %124 = load ptr, ptr %5, align 8
  %125 = getelementptr inbounds nuw %struct.A_Const, ptr %124, i32 0, i32 3
  %126 = load i32, ptr %125, align 4
  %127 = load ptr, ptr %6, align 8
  %128 = getelementptr inbounds nuw %struct.Const, ptr %127, i32 0, i32 8
  store i32 %126, ptr %128, align 4
  %129 = load ptr, ptr %6, align 8
  store ptr %129, ptr %3, align 8
  store i32 1, ptr %12, align 4
  br label %130

130:                                              ; preds = %117, %116, %20
  call void @llvm.lifetime.end.p0(i64 40, ptr %11) #7
  call void @llvm.lifetime.end.p0(i64 1, ptr %10) #7
  call void @llvm.lifetime.end.p0(i64 4, ptr %9) #7
  call void @llvm.lifetime.end.p0(i64 4, ptr %8) #7
  call void @llvm.lifetime.end.p0(i64 8, ptr %7) #7
  call void @llvm.lifetime.end.p0(i64 8, ptr %6) #7
  %131 = load ptr, ptr %3, align 8
  ret ptr %131
}