; Function Attrs: nounwind uwtable
define dso_local ptr @make_const(ptr noundef %0, ptr noundef readonly captures(none) %1) local_unnamed_addr #0 {
  %3 = alloca %struct.ParseCallbackState, align 8
  %4 = alloca %struct.ErrorSaveContext, align 8
  call void @llvm.lifetime.start.p0(i64 40, ptr nonnull %3) #8
  %5 = getelementptr inbounds nuw i8, ptr %1, i64 24
  %6 = load i8, ptr %5, align 8, !range !4, !noundef !5
  %7 = trunc nuw i8 %6 to i1
  br i1 %7, label %8, label %10

8:                                                ; preds = %2
  %9 = tail call ptr @makeConst(i32 noundef 705, i32 noundef -1, i32 noundef 0, i32 noundef -2, i64 noundef 0, i1 noundef zeroext true, i1 noundef zeroext false) #8
  br label %67

10:                                               ; preds = %2
  %11 = getelementptr inbounds nuw i8, ptr %1, i64 8
  %12 = load i32, ptr %11, align 8
  switch i32 %12, label %61 [
    i32 464, label %13
    i32 465, label %17
    i32 466, label %40
    i32 467, label %44
    i32 468, label %48
  ]

13:                                               ; preds = %10
  %14 = getelementptr inbounds nuw i8, ptr %1, i64 12
  %15 = load i32, ptr %14, align 4
  %16 = sext i32 %15 to i64
  br label %65

17:                                               ; preds = %10
  call void @llvm.lifetime.start.p0(i64 16, ptr nonnull %4) #8
  call void @llvm.memcpy.p0.p0.i64(ptr noundef nonnull align 8 dereferenceable(16) %4, ptr noundef nonnull align 8 dereferenceable(16) @__const.make_const.escontext, i64 16, i1 false)
  %18 = getelementptr inbounds nuw i8, ptr %1, i64 16
  %19 = load ptr, ptr %18, align 8
  %20 = call i64 @pg_strtoint64_safe(ptr noundef %19, ptr noundef nonnull %4) #8
  %21 = getelementptr inbounds nuw i8, ptr %4, i64 4
  %22 = load i8, ptr %21, align 4, !range !4, !noundef !5
  %23 = trunc nuw i8 %22 to i1
  br i1 %23, label %27, label %24

24:                                               ; preds = %17
  %25 = add i64 %20, 2147483648
  %26 = icmp ult i64 %25, 4294967296
  %spec.select = select i1 %26, i32 23, i32 20
  %spec.select42 = select i1 %26, i32 4, i32 8
  br label %39

27:                                               ; preds = %17
  %28 = getelementptr inbounds nuw i8, ptr %1, i64 28
  %29 = load i32, ptr %28, align 4
  store ptr %0, ptr %3, align 8
  %30 = getelementptr inbounds nuw i8, ptr %3, i64 8
  store i32 %29, ptr %30, align 8
  %31 = getelementptr inbounds nuw i8, ptr %3, i64 16
  %32 = getelementptr inbounds nuw i8, ptr %3, i64 24
  store ptr @pcb_error_callback, ptr %32, align 8
  %33 = getelementptr inbounds nuw i8, ptr %3, i64 32
  store ptr %3, ptr %33, align 8
  %34 = load ptr, ptr @error_context_stack, align 8
  store ptr %34, ptr %31, align 8
  store ptr %31, ptr @error_context_stack, align 8
  %35 = load ptr, ptr %18, align 8
  %36 = ptrtoint ptr %35 to i64
  %37 = call i64 @DirectFunctionCall3Coll(ptr noundef nonnull @numeric_in, i32 noundef 0, i64 noundef %36, i64 noundef 0, i64 noundef -1) #8
  %38 = load ptr, ptr %31, align 8
  store ptr %38, ptr @error_context_stack, align 8
  br label %39

39:                                               ; preds = %24, %27
  %.237 = phi i64 [ %37, %27 ], [ %20, %24 ]
  %.234 = phi i32 [ 1700, %27 ], [ %spec.select, %24 ]
  %.231 = phi i32 [ -1, %27 ], [ %spec.select42, %24 ]
  %.2 = xor i1 %23, true
  call void @llvm.lifetime.end.p0(i64 16, ptr nonnull %4) #8
  br label %65

40:                                               ; preds = %10
  %41 = getelementptr inbounds nuw i8, ptr %1, i64 12
  %42 = load i8, ptr %41, align 4, !range !4, !noundef !5
  %43 = zext nneg i8 %42 to i64
  br label %65

44:                                               ; preds = %10
  %45 = getelementptr inbounds nuw i8, ptr %1, i64 16
  %46 = load ptr, ptr %45, align 8
  %47 = ptrtoint ptr %46 to i64
  br label %65

48:                                               ; preds = %10
  %49 = getelementptr inbounds nuw i8, ptr %1, i64 28
  %50 = load i32, ptr %49, align 4
  store ptr %0, ptr %3, align 8
  %51 = getelementptr inbounds nuw i8, ptr %3, i64 8
  store i32 %50, ptr %51, align 8
  %52 = getelementptr inbounds nuw i8, ptr %3, i64 16
  %53 = getelementptr inbounds nuw i8, ptr %3, i64 24
  store ptr @pcb_error_callback, ptr %53, align 8
  %54 = getelementptr inbounds nuw i8, ptr %3, i64 32
  store ptr %3, ptr %54, align 8
  %55 = load ptr, ptr @error_context_stack, align 8
  store ptr %55, ptr %52, align 8
  store ptr %52, ptr @error_context_stack, align 8
  %56 = getelementptr inbounds nuw i8, ptr %1, i64 16
  %57 = load ptr, ptr %56, align 8
  %58 = ptrtoint ptr %57 to i64
  %59 = call i64 @DirectFunctionCall3Coll(ptr noundef nonnull @bit_in, i32 noundef 0, i64 noundef %58, i64 noundef 0, i64 noundef -1) #8
  %60 = load ptr, ptr %52, align 8
  store ptr %60, ptr @error_context_stack, align 8
  br label %65

61:                                               ; preds = %10
  %62 = tail call zeroext i1 @errstart_cold(i32 noundef 21, ptr noundef null) #9
  tail call void @llvm.assume(i1 %62)
  %63 = load i32, ptr %11, align 8
  %64 = tail call i32 (ptr, ...) @errmsg_internal(ptr noundef nonnull @.str.3, i32 noundef %63) #8
  tail call void @errfinish(ptr noundef nonnull @.str.1, i32 noundef 466, ptr noundef nonnull @__func__.make_const) #8
  unreachable

65:                                               ; preds = %48, %44, %40, %39, %13
  %.035 = phi i64 [ %59, %48 ], [ %47, %44 ], [ %43, %40 ], [ %.237, %39 ], [ %16, %13 ]
  %.032 = phi i32 [ 1560, %48 ], [ 705, %44 ], [ 16, %40 ], [ %.234, %39 ], [ 23, %13 ]
  %.029 = phi i32 [ -1, %48 ], [ -2, %44 ], [ 1, %40 ], [ %.231, %39 ], [ 4, %13 ]
  %.028 = phi i1 [ false, %48 ], [ false, %44 ], [ true, %40 ], [ %.2, %39 ], [ true, %13 ]
  %66 = call ptr @makeConst(i32 noundef %.032, i32 noundef -1, i32 noundef 0, i32 noundef %.029, i64 noundef %.035, i1 noundef zeroext false, i1 noundef zeroext %.028) #8
  br label %67

67:                                               ; preds = %65, %8
  %.sink40 = phi ptr [ %66, %65 ], [ %9, %8 ]
  %68 = getelementptr inbounds nuw i8, ptr %1, i64 28
  %69 = load i32, ptr %68, align 4
  %70 = getelementptr inbounds nuw i8, ptr %.sink40, i64 36
  store i32 %69, ptr %70, align 4
  call void @llvm.lifetime.end.p0(i64 40, ptr nonnull %3) #8
  ret ptr %.sink40
}